; Function Attrs: mustprogress nounwind uwtable
define hidden noundef zeroext i1 @_ZN7mitsuba3xml21is_unbounded_spectrumERKNSt3__112basic_stringIcNS1_11char_traitsIcEENS1_9allocatorIcEEEE(ptr noundef nonnull align 8 dereferenceable(24) %0) local_unnamed_addr #0 personality ptr @__gxx_personality_v0 {
  %2 = load i8, ptr %0, align 8
  %3 = and i8 %2, 1
  %.not.i.i = icmp eq i8 %3, 0
  %4 = getelementptr inbounds i8, ptr %0, i64 8
  %5 = load i64, ptr %4, align 8
  %6 = lshr i8 %2, 1
  %7 = zext nneg i8 %6 to i64
  %8 = select i1 %.not.i.i, i64 %7, i64 %5
  %.not.i = icmp eq i64 %8, 3
  br i1 %.not.i, label %9, label %_ZNSt3__1eqB8ne190000IcNS_11char_traitsIcEENS_9allocatorIcEEEEbRKNS_12basic_stringIT_T0_T1_EEPKS6_.exit.thread

9:                                                ; preds = %1
  %10 = invoke noundef i32 @_ZNKSt3__112basic_stringIcNS_11char_traitsIcEENS_9allocatorIcEEE7compareEmmPKcm(ptr noundef nonnull align 8 dereferenceable(24) %0, i64 noundef 0, i64 noundef -1, ptr noundef nonnull @.str, i64 noundef 3)
          to label %_ZNSt3__1eqB8ne190000IcNS_11char_traitsIcEENS_9allocatorIcEEEEbRKNS_12basic_stringIT_T0_T1_EEPKS6_.exit unwind label %11

11:                                               ; preds = %9
  %12 = landingpad { ptr, i32 }
          catch ptr null
  %13 = extractvalue { ptr, i32 } %12, 0
  tail call void @__clang_call_terminate(ptr %13) #27
  unreachable

_ZNSt3__1eqB8ne190000IcNS_11char_traitsIcEENS_9allocatorIcEEEEbRKNS_12basic_stringIT_T0_T1_EEPKS6_.exit: ; preds = %9
  %14 = icmp eq i32 %10, 0
  br i1 %14, label %_ZNSt3__1eqB8ne190000IcNS_11char_traitsIcEENS_9allocatorIcEEEEbRKNS_12basic_stringIT_T0_T1_EEPKS6_.exit15, label %_ZNSt3__1eqB8ne190000IcNS_11char_traitsIcEENS_9allocatorIcEEEEbRKNS_12basic_stringIT_T0_T1_EEPKS6_.exit._ZNSt3__1eqB8ne190000IcNS_11char_traitsIcEENS_9allocatorIcEEEEbRKNS_12basic_stringIT_T0_T1_EEPKS6_.exit.thread_crit_edge

_ZNSt3__1eqB8ne190000IcNS_11char_traitsIcEENS_9allocatorIcEEEEbRKNS_12basic_stringIT_T0_T1_EEPKS6_.exit._ZNSt3__1eqB8ne190000IcNS_11char_traitsIcEENS_9allocatorIcEEEEbRKNS_12basic_stringIT_T0_T1_EEPKS6_.exit.thread_crit_edge: ; preds = %_ZNSt3__1eqB8ne190000IcNS_11char_traitsIcEENS_9allocatorIcEEEEbRKNS_12basic_stringIT_T0_T1_EEPKS6_.exit
  %.pre = load i8, ptr %0, align 8
  %.pre19 = load i64, ptr %4, align 8
  %.pre24 = and i8 %.pre, 1
  %.pre25 = lshr i8 %.pre, 1
  %.pre27 = zext nneg i8 %.pre25 to i64
  br label %_ZNSt3__1eqB8ne190000IcNS_11char_traitsIcEENS_9allocatorIcEEEEbRKNS_12basic_stringIT_T0_T1_EEPKS6_.exit.thread

_ZNSt3__1eqB8ne190000IcNS_11char_traitsIcEENS_9allocatorIcEEEEbRKNS_12basic_stringIT_T0_T1_EEPKS6_.exit.thread: ; preds = %_ZNSt3__1eqB8ne190000IcNS_11char_traitsIcEENS_9allocatorIcEEEEbRKNS_12basic_stringIT_T0_T1_EEPKS6_.exit._ZNSt3__1eqB8ne190000IcNS_11char_traitsIcEENS_9allocatorIcEEEEbRKNS_12basic_stringIT_T0_T1_EEPKS6_.exit.thread_crit_edge, %1
  %.pre-phi28 = phi i64 [ %.pre27, %_ZNSt3__1eqB8ne190000IcNS_11char_traitsIcEENS_9allocatorIcEEEEbRKNS_12basic_stringIT_T0_T1_EEPKS6_.exit._ZNSt3__1eqB8ne190000IcNS_11char_traitsIcEENS_9allocatorIcEEEEbRKNS_12basic_stringIT_T0_T1_EEPKS6_.exit.thread_crit_edge ], [ %7, %1 ]
  %.pre-phi = phi i8 [ %.pre24, %_ZNSt3__1eqB8ne190000IcNS_11char_traitsIcEENS_9allocatorIcEEEEbRKNS_12basic_stringIT_T0_T1_EEPKS6_.exit._ZNSt3__1eqB8ne190000IcNS_11char_traitsIcEENS_9allocatorIcEEEEbRKNS_12basic_stringIT_T0_T1_EEPKS6_.exit.thread_crit_edge ], [ %3, %1 ]
  %15 = phi i64 [ %.pre19, %_ZNSt3__1eqB8ne190000IcNS_11char_traitsIcEENS_9allocatorIcEEEEbRKNS_12basic_stringIT_T0_T1_EEPKS6_.exit._ZNSt3__1eqB8ne190000IcNS_11char_traitsIcEENS_9allocatorIcEEEEbRKNS_12basic_stringIT_T0_T1_EEPKS6_.exit.thread_crit_edge ], [ %5, %1 ]
  %.not.i.i4 = icmp eq i8 %.pre-phi, 0
  %16 = select i1 %.not.i.i4, i64 %.pre-phi28, i64 %15
  %.not.i5 = icmp eq i64 %16, 1
  br i1 %.not.i5, label %17, label %_ZNSt3__1eqB8ne190000IcNS_11char_traitsIcEENS_9allocatorIcEEEEbRKNS_12basic_stringIT_T0_T1_EEPKS6_.exit7.thread

17:                                               ; preds = %_ZNSt3__1eqB8ne190000IcNS_11char_traitsIcEENS_9allocatorIcEEEEbRKNS_12basic_stringIT_T0_T1_EEPKS6_.exit.thread
  %18 = invoke noundef i32 @_ZNKSt3__112basic_stringIcNS_11char_traitsIcEENS_9allocatorIcEEE7compareEmmPKcm(ptr noundef nonnull align 8 dereferenceable(24) %0, i64 noundef 0, i64 noundef -1, ptr noundef nonnull @.str.1, i64 noundef 1)
          to label %_ZNSt3__1eqB8ne190000IcNS_11char_traitsIcEENS_9allocatorIcEEEEbRKNS_12basic_stringIT_T0_T1_EEPKS6_.exit7 unwind label %19

19:                                               ; preds = %17
  %20 = landingpad { ptr, i32 }
          catch ptr null
  %21 = extractvalue { ptr, i32 } %20, 0
  tail call void @__clang_call_terminate(ptr %21) #27
  unreachable

_ZNSt3__1eqB8ne190000IcNS_11char_traitsIcEENS_9allocatorIcEEEEbRKNS_12basic_stringIT_T0_T1_EEPKS6_.exit7: ; preds = %17
  %22 = icmp eq i32 %18, 0
  br i1 %22, label %_ZNSt3__1eqB8ne190000IcNS_11char_traitsIcEENS_9allocatorIcEEEEbRKNS_12basic_stringIT_T0_T1_EEPKS6_.exit15, label %_ZNSt3__1eqB8ne190000IcNS_11char_traitsIcEENS_9allocatorIcEEEEbRKNS_12basic_stringIT_T0_T1_EEPKS6_.exit7._ZNSt3__1eqB8ne190000IcNS_11char_traitsIcEENS_9allocatorIcEEEEbRKNS_12basic_stringIT_T0_T1_EEPKS6_.exit7.thread_crit_edge

_ZNSt3__1eqB8ne190000IcNS_11char_traitsIcEENS_9allocatorIcEEEEbRKNS_12basic_stringIT_T0_T1_EEPKS6_.exit7._ZNSt3__1eqB8ne190000IcNS_11char_traitsIcEENS_9allocatorIcEEEEbRKNS_12basic_stringIT_T0_T1_EEPKS6_.exit7.thread_crit_edge: ; preds = %_ZNSt3__1eqB8ne190000IcNS_11char_traitsIcEENS_9allocatorIcEEEEbRKNS_12basic_stringIT_T0_T1_EEPKS6_.exit7
  %.pre20 = load i8, ptr %0, align 8
  %.pre21 = load i64, ptr %4, align 8
  %.pre29 = and i8 %.pre20, 1
  %.pre31 = lshr i8 %.pre20, 1
  %.pre33 = zext nneg i8 %.pre31 to i64
  br label %_ZNSt3__1eqB8ne190000IcNS_11char_traitsIcEENS_9allocatorIcEEEEbRKNS_12basic_stringIT_T0_T1_EEPKS6_.exit7.thread

_ZNSt3__1eqB8ne190000IcNS_11char_traitsIcEENS_9allocatorIcEEEEbRKNS_12basic_stringIT_T0_T1_EEPKS6_.exit7.thread: ; preds = %_ZNSt3__1eqB8ne190000IcNS_11char_traitsIcEENS_9allocatorIcEEEEbRKNS_12basic_stringIT_T0_T1_EEPKS6_.exit7._ZNSt3__1eqB8ne190000IcNS_11char_traitsIcEENS_9allocatorIcEEEEbRKNS_12basic_stringIT_T0_T1_EEPKS6_.exit7.thread_crit_edge, %_ZNSt3__1eqB8ne190000IcNS_11char_traitsIcEENS_9allocatorIcEEEEbRKNS_12basic_stringIT_T0_T1_EEPKS6_.exit.thread
  %.pre-phi34 = phi i64 [ %.pre33, %_ZNSt3__1eqB8ne190000IcNS_11char_traitsIcEENS_9allocatorIcEEEEbRKNS_12basic_stringIT_T0_T1_EEPKS6_.exit7._ZNSt3__1eqB8ne190000IcNS_11char_traitsIcEENS_9allocatorIcEEEEbRKNS_12basic_stringIT_T0_T1_EEPKS6_.exit7.thread_crit_edge ], [ %.pre-phi28, %_ZNSt3__1eqB8ne190000IcNS_11char_traitsIcEENS_9allocatorIcEEEEbRKNS_12basic_stringIT_T0_T1_EEPKS6_.exit.thread ]
  %.pre-phi30 = phi i8 [ %.pre29, %_ZNSt3__1eqB8ne190000IcNS_11char_traitsIcEENS_9allocatorIcEEEEbRKNS_12basic_stringIT_T0_T1_EEPKS6_.exit7._ZNSt3__1eqB8ne190000IcNS_11char_traitsIcEENS_9allocatorIcEEEEbRKNS_12basic_stringIT_T0_T1_EEPKS6_.exit7.thread_crit_edge ], [ %.pre-phi, %_ZNSt3__1eqB8ne190000IcNS_11char_traitsIcEENS_9allocatorIcEEEEbRKNS_12basic_stringIT_T0_T1_EEPKS6_.exit.thread ]
  %23 = phi i64 [ %.pre21, %_ZNSt3__1eqB8ne190000IcNS_11char_traitsIcEENS_9allocatorIcEEEEbRKNS_12basic_stringIT_T0_T1_EEPKS6_.exit7._ZNSt3__1eqB8ne190000IcNS_11char_traitsIcEENS_9allocatorIcEEEEbRKNS_12basic_stringIT_T0_T1_EEPKS6_.exit7.thread_crit_edge ], [ %15, %_ZNSt3__1eqB8ne190000IcNS_11char_traitsIcEENS_9allocatorIcEEEEbRKNS_12basic_stringIT_T0_T1_EEPKS6_.exit.thread ]
  %.not.i.i8 = icmp eq i8 %.pre-phi30, 0
  %24 = select i1 %.not.i.i8, i64 %.pre-phi34, i64 %23
  %.not.i9 = icmp eq i64 %24, 7
  br i1 %.not.i9, label %25, label %_ZNSt3__1eqB8ne190000IcNS_11char_traitsIcEENS_9allocatorIcEEEEbRKNS_12basic_stringIT_T0_T1_EEPKS6_.exit11.thread

25:                                               ; preds = %_ZNSt3__1eqB8ne190000IcNS_11char_traitsIcEENS_9allocatorIcEEEEbRKNS_12basic_stringIT_T0_T1_EEPKS6_.exit7.thread
  %26 = invoke noundef i32 @_ZNKSt3__112basic_stringIcNS_11char_traitsIcEENS_9allocatorIcEEE7compareEmmPKcm(ptr noundef nonnull align 8 dereferenceable(24) %0, i64 noundef 0, i64 noundef -1, ptr noundef nonnull @.str.2, i64 noundef 7)
          to label %_ZNSt3__1eqB8ne190000IcNS_11char_traitsIcEENS_9allocatorIcEEEEbRKNS_12basic_stringIT_T0_T1_EEPKS6_.exit11 unwind label %27

27:                                               ; preds = %25
  %28 = landingpad { ptr, i32 }
          catch ptr null
  %29 = extractvalue { ptr, i32 } %28, 0
  tail call void @__clang_call_terminate(ptr %29) #27
  unreachable

_ZNSt3__1eqB8ne190000IcNS_11char_traitsIcEENS_9allocatorIcEEEEbRKNS_12basic_stringIT_T0_T1_EEPKS6_.exit11: ; preds = %25
  %30 = icmp eq i32 %26, 0
  br i1 %30, label %_ZNSt3__1eqB8ne190000IcNS_11char_traitsIcEENS_9allocatorIcEEEEbRKNS_12basic_stringIT_T0_T1_EEPKS6_.exit15, label %_ZNSt3__1eqB8ne190000IcNS_11char_traitsIcEENS_9allocatorIcEEEEbRKNS_12basic_stringIT_T0_T1_EEPKS6_.exit11._ZNSt3__1eqB8ne190000IcNS_11char_traitsIcEENS_9allocatorIcEEEEbRKNS_12basic_stringIT_T0_T1_EEPKS6_.exit11.thread_crit_edge

_ZNSt3__1eqB8ne190000IcNS_11char_traitsIcEENS_9allocatorIcEEEEbRKNS_12basic_stringIT_T0_T1_EEPKS6_.exit11._ZNSt3__1eqB8ne190000IcNS_11char_traitsIcEENS_9allocatorIcEEEEbRKNS_12basic_stringIT_T0_T1_EEPKS6_.exit11.thread_crit_edge: ; preds = %_ZNSt3__1eqB8ne190000IcNS_11char_traitsIcEENS_9allocatorIcEEEEbRKNS_12basic_stringIT_T0_T1_EEPKS6_.exit11
  %.pre22 = load i8, ptr %0, align 8
  %.pre23 = load i64, ptr %4, align 8
  %.pre35 = and i8 %.pre22, 1
  %.pre37 = lshr i8 %.pre22, 1
  %.pre39 = zext nneg i8 %.pre37 to i64
  br label %_ZNSt3__1eqB8ne190000IcNS_11char_traitsIcEENS_9allocatorIcEEEEbRKNS_12basic_stringIT_T0_T1_EEPKS6_.exit11.thread

_ZNSt3__1eqB8ne190000IcNS_11char_traitsIcEENS_9allocatorIcEEEEbRKNS_12basic_stringIT_T0_T1_EEPKS6_.exit11.thread: ; preds = %_ZNSt3__1eqB8ne190000IcNS_11char_traitsIcEENS_9allocatorIcEEEEbRKNS_12basic_stringIT_T0_T1_EEPKS6_.exit11._ZNSt3__1eqB8ne190000IcNS_11char_traitsIcEENS_9allocatorIcEEEEbRKNS_12basic_stringIT_T0_T1_EEPKS6_.exit11.thread_crit_edge, %_ZNSt3__1eqB8ne190000IcNS_11char_traitsIcEENS_9allocatorIcEEEEbRKNS_12basic_stringIT_T0_T1_EEPKS6_.exit7.thread
  %.pre-phi40 = phi i64 [ %.pre39, %_ZNSt3__1eqB8ne190000IcNS_11char_traitsIcEENS_9allocatorIcEEEEbRKNS_12basic_stringIT_T0_T1_EEPKS6_.exit11._ZNSt3__1eqB8ne190000IcNS_11char_traitsIcEENS_9allocatorIcEEEEbRKNS_12basic_stringIT_T0_T1_EEPKS6_.exit11.thread_crit_edge ], [ %.pre-phi34, %_ZNSt3__1eqB8ne190000IcNS_11char_traitsIcEENS_9allocatorIcEEEEbRKNS_12basic_stringIT_T0_T1_EEPKS6_.exit7.thread ]
  %.pre-phi36 = phi i8 [ %.pre35, %_ZNSt3__1eqB8ne190000IcNS_11char_traitsIcEENS_9allocatorIcEEEEbRKNS_12basic_stringIT_T0_T1_EEPKS6_.exit11._ZNSt3__1eqB8ne190000IcNS_11char_traitsIcEENS_9allocatorIcEEEEbRKNS_12basic_stringIT_T0_T1_EEPKS6_.exit11.thread_crit_edge ], [ %.pre-phi30, %_ZNSt3__1eqB8ne190000IcNS_11char_traitsIcEENS_9allocatorIcEEEEbRKNS_12basic_stringIT_T0_T1_EEPKS6_.exit7.thread ]
  %31 = phi i64 [ %.pre23, %_ZNSt3__1eqB8ne190000IcNS_11char_traitsIcEENS_9allocatorIcEEEEbRKNS_12basic_stringIT_T0_T1_EEPKS6_.exit11._ZNSt3__1eqB8ne190000IcNS_11char_traitsIcEENS_9allocatorIcEEEEbRKNS_12basic_stringIT_T0_T1_EEPKS6_.exit11.thread_crit_edge ], [ %23, %_ZNSt3__1eqB8ne190000IcNS_11char_traitsIcEENS_9allocatorIcEEEEbRKNS_12basic_stringIT_T0_T1_EEPKS6_.exit7.thread ]
  %.not.i.i12 = icmp eq i8 %.pre-phi36, 0
  %32 = select i1 %.not.i.i12, i64 %.pre-phi40, i64 %31
  %.not.i13 = icmp eq i64 %32, 7
  br i1 %.not.i13, label %33, label %_ZNSt3__1eqB8ne190000IcNS_11char_traitsIcEENS_9allocatorIcEEEEbRKNS_12basic_stringIT_T0_T1_EEPKS6_.exit15

33:                                               ; preds = %_ZNSt3__1eqB8ne190000IcNS_11char_traitsIcEENS_9allocatorIcEEEEbRKNS_12basic_stringIT_T0_T1_EEPKS6_.exit11.thread
  %34 = invoke noundef i32 @_ZNKSt3__112basic_stringIcNS_11char_traitsIcEENS_9allocatorIcEEE7compareEmmPKcm(ptr noundef nonnull align 8 dereferenceable(24) %0, i64 noundef 0, i64 noundef -1, ptr noundef nonnull @.str.3, i64 noundef 7)
          to label %35 unwind label %37

35:                                               ; preds = %33
  %36 = icmp eq i32 %34, 0
  br label %_ZNSt3__1eqB8ne190000IcNS_11char_traitsIcEENS_9allocatorIcEEEEbRKNS_12basic_stringIT_T0_T1_EEPKS6_.exit15

37:                                               ; preds = %33
  %38 = landingpad { ptr, i32 }
          catch ptr null
  %39 = extractvalue { ptr, i32 } %38, 0
  tail call void @__clang_call_terminate(ptr %39) #27
  unreachable

_ZNSt3__1eqB8ne190000IcNS_11char_traitsIcEENS_9allocatorIcEEEEbRKNS_12basic_stringIT_T0_T1_EEPKS6_.exit15: ; preds = %35, %_ZNSt3__1eqB8ne190000IcNS_11char_traitsIcEENS_9allocatorIcEEEEbRKNS_12basic_stringIT_T0_T1_EEPKS6_.exit11.thread, %_ZNSt3__1eqB8ne190000IcNS_11char_traitsIcEENS_9allocatorIcEEEEbRKNS_12basic_stringIT_T0_T1_EEPKS6_.exit11, %_ZNSt3__1eqB8ne190000IcNS_11char_traitsIcEENS_9allocatorIcEEEEbRKNS_12basic_stringIT_T0_T1_EEPKS6_.exit7, %_ZNSt3__1eqB8ne190000IcNS_11char_traitsIcEENS_9allocatorIcEEEEbRKNS_12basic_stringIT_T0_T1_EEPKS6_.exit
  %40 = phi i1 [ true, %_ZNSt3__1eqB8ne190000IcNS_11char_traitsIcEENS_9allocatorIcEEEEbRKNS_12basic_stringIT_T0_T1_EEPKS6_.exit11 ], [ true, %_ZNSt3__1eqB8ne190000IcNS_11char_traitsIcEENS_9allocatorIcEEEEbRKNS_12basic_stringIT_T0_T1_EEPKS6_.exit7 ], [ true, %_ZNSt3__1eqB8ne190000IcNS_11char_traitsIcEENS_9allocatorIcEEEEbRKNS_12basic_stringIT_T0_T1_EEPKS6_.exit ], [ %36, %35 ], [ false, %_ZNSt3__1eqB8ne190000IcNS_11char_traitsIcEENS_9allocatorIcEEEEbRKNS_12basic_stringIT_T0_T1_EEPKS6_.exit11.thread ]
  ret i1 %40
}